LIBRARY compat.dll
EXPORTS

; compat.o
_Z11win32_utimePKcP4stat
_Z11strncasecmpPKcS0_i
_Z11win32_cgetsPci
_Z11win32_chdirPKc
_Z11win32_chmodPKctx
_Z11win32_mkdirPKc
_Z12UTF8_2_wcharPPcPKc
_Z12gettimeofdayP7timevalP8timezone
_Z12wchar_2_UTF8PcPKwi
_Z12win32_getcwdPci
_Z12win32_unlinkPKc
_Z15init_stack_dumpv
_Z15win32_ftruncateix
_Z16wchar_win32_pathPKcPw
_Z17SetVSSPathConvertPFiPKcPciEPFiPKwPwiE
_Z18GetApplicationNamePKcPPcPS0_
; _Z18cvt_utime_to_ftimeRKxR9_FILETIME
_Z18unix_name_to_win32Pc
_Z21Win32ConvCleanupCachev
_Z21make_wchar_win32_pathPcPi
_Z23conv_unix_to_win32_pathPKcPcm
_Z30make_win32_path_UTF8_2_wchar_wPKc
_Z4forkv
_Z4pipePi
_Z11win32_lstatPKcP4statPy
_Z4statPKcP4stat
_Z5chownPKcjj
_Z5fcntlii
_Z5fcntliil
;_Z5fstatxP4stat
_Z5lstatPKcP4stat
_Z5sleepi
_Z6execvpPKcPPc
_Z6lchownPKcjj
_Z6randomv
_Z7geteuidv
_Z7opendirPKc
_Z7openlogPKcii
_Z7srandomj
_Z7waitpidiPii
_Z8WSA_Initv
_Z8closedirPv
_Z8closelogv
_Z8getgrgidj
_Z8getpwuidj
_Z8pathconfPKci
_Z8readlinkPKcPci
_Z7readdirPv
_Z9ErrorExitPKc
_ZN6winverC1Ev
_ZN6winverC2Ev
syslog
umask
utime
_Z9forkchildPP3fzpS1_S1_PKcPKPc
_Z17forkchild_no_waitPP3fzpS1_S1_PKcPKPc
_Z15win32_getfsnamePKcPcy
_Z8realpathPKcPc
_Z16get_fixed_drivesv

; print.o
_Z10__vsprintfPcPKcS_
; _Z11__vsnprintfPcyPKcS_
; _Z10__snprintfPcyPKcz
_Z9__sprintfPcPKcz
; _Z4doprPcyPKcS_PFvS_PyyiE

; winapi.o
_Z17InitWinAPIWrapperv
